target datalayout = "e-m:e-p270:32:32-p271:32:32-p272:64:64-i64:64-i128:128-f80:128-n8:16:32:64-S128"
target triple = "x86_64-pc-linux-gnu"

%"struct.dd::simplifier::simplify_exlin(const vector<uint_set> &, const vector<pdd> &, vector<pdd> &)::mon::hash" = type { ptr }
%"struct.dd::simplifier::simplify_exlin(const vector<uint_set> &, const vector<pdd> &, vector<pdd> &)::mon::eq" = type { ptr }
%struct.mon = type { i32, i32, i32 }
%class.default_hash_entry.34 = type { i32, i32, %struct.mon }
%class.core_hashtable.25 = type <{ %"struct.dd::simplifier::simplify_exlin(const vector<uint_set> &, const vector<pdd> &, vector<pdd> &)::mon::hash", %"struct.dd::simplifier::simplify_exlin(const vector<uint_set> &, const vector<pdd> &, vector<pdd> &)::mon::eq", ptr, i32, i32, i32, [4 x i8] }>

; Function Attrs: inlinehint mustprogress nounwind uwtable
define internal void @_ZSt9__advanceIP18default_hash_entryIZN2dd10simplifier14simplify_exlinERK6vectorI8uint_setLb1EjERKS3_INS1_3pddELb1EjERS9_E3monElEvRT_T0_St26random_access_iterator_tag(ptr noundef nonnull align 8 dereferenceable(8) %0, i64 noundef %1) #10 {
  %3 = alloca ptr, align 8
  %4 = alloca i64, align 8
  store ptr %0, ptr %3, align 8, !tbaa !290
  store i64 %1, ptr %4, align 8, !tbaa !197
  %5 = load i64, ptr %4, align 8, !tbaa !197
  %6 = call i1 @llvm.is.constant.i64(i64 %5)
  br i1 %6, label %7, label %14

7:                                                ; preds = %2
  %8 = load i64, ptr %4, align 8, !tbaa !197
  %9 = icmp eq i64 %8, 1
  br i1 %9, label %10, label %14

10:                                               ; preds = %7
  %11 = load ptr, ptr %3, align 8, !tbaa !290
  %12 = load ptr, ptr %11, align 8, !tbaa !187
  %13 = getelementptr inbounds nuw %class.default_hash_entry.34, ptr %12, i32 1
  store ptr %13, ptr %11, align 8, !tbaa !187
  br label %30

14:                                               ; preds = %7, %2
  %15 = load i64, ptr %4, align 8, !tbaa !197
  %16 = call i1 @llvm.is.constant.i64(i64 %15)
  br i1 %16, label %17, label %24

17:                                               ; preds = %14
  %18 = load i64, ptr %4, align 8, !tbaa !197
  %19 = icmp eq i64 %18, -1
  br i1 %19, label %20, label %24

20:                                               ; preds = %17
  %21 = load ptr, ptr %3, align 8, !tbaa !290
  %22 = load ptr, ptr %21, align 8, !tbaa !187
  %23 = getelementptr inbounds %class.default_hash_entry.34, ptr %22, i32 -1
  store ptr %23, ptr %21, align 8, !tbaa !187
  br label %29

24:                                               ; preds = %17, %14
  %25 = load i64, ptr %4, align 8, !tbaa !197
  %26 = load ptr, ptr %3, align 8, !tbaa !290
  %27 = load ptr, ptr %26, align 8, !tbaa !187
  %28 = getelementptr inbounds %class.default_hash_entry.34, ptr %27, i64 %25
  store ptr %28, ptr %26, align 8, !tbaa !187
  br label %29

29:                                               ; preds = %24, %20
  br label %30

30:                                               ; preds = %29, %10
  ret void
}

; Function Attrs: inlinehint mustprogress nounwind uwtable
define internal void @_ZSt19__iterator_categoryIP18default_hash_entryIZN2dd10simplifier14simplify_exlinERK6vectorI8uint_setLb1EjERKS3_INS1_3pddELb1EjERS9_E3monEENSt15iterator_traitsIT_E17iterator_categoryERKSH_(ptr noundef nonnull align 8 dereferenceable(8) %0) #10 {
  %2 = alloca ptr, align 8
  store ptr %0, ptr %2, align 8, !tbaa !290
  ret void
}

; Function Attrs: inlinehint mustprogress uwtable
define internal void @_ZSt7advanceIP18default_hash_entryIZN2dd10simplifier14simplify_exlinERK6vectorI8uint_setLb1EjERKS3_INS1_3pddELb1EjERS9_E3monEjEvRT_T0_(ptr noundef nonnull align 8 dereferenceable(8) %0, i32 noundef %1) #7 {
  %3 = alloca ptr, align 8
  %4 = alloca i32, align 4
  %5 = alloca i64, align 8
  store ptr %0, ptr %3, align 8, !tbaa !290
  store i32 %1, ptr %4, align 4, !tbaa !29
  call void @llvm.lifetime.start.p0(i64 8, ptr %5) #3
  %6 = load i32, ptr %4, align 4, !tbaa !29
  %7 = zext i32 %6 to i64
  store i64 %7, ptr %5, align 8, !tbaa !197
  %8 = load ptr, ptr %3, align 8, !tbaa !290
  %9 = load i64, ptr %5, align 8, !tbaa !197
  %10 = load ptr, ptr %3, align 8, !tbaa !290
  call void @_ZSt19__iterator_categoryIP18default_hash_entryIZN2dd10simplifier14simplify_exlinERK6vectorI8uint_setLb1EjERKS3_INS1_3pddELb1EjERS9_E3monEENSt15iterator_traitsIT_E17iterator_categoryERKSH_(ptr noundef nonnull align 8 dereferenceable(8) %10)
  call void @_ZSt9__advanceIP18default_hash_entryIZN2dd10simplifier14simplify_exlinERK6vectorI8uint_setLb1EjERKS3_INS1_3pddELb1EjERS9_E3monElEvRT_T0_St26random_access_iterator_tag(ptr noundef nonnull align 8 dereferenceable(8) %8, i64 noundef %9)
  call void @llvm.lifetime.end.p0(i64 8, ptr %5) #3
  ret void
}

; Function Attrs: mustprogress uwtable
define internal noundef ptr @_ZNSt14_Destroy_n_auxILb1EE11__destroy_nIP18default_hash_entryIZN2dd10simplifier14simplify_exlinERK6vectorI8uint_setLb1EjERKS5_INS3_3pddELb1EjERSB_E3monEjEET_SI_T0_(ptr noundef %0, i32 noundef %1) #4 align 2 {
  %3 = alloca ptr, align 8
  %4 = alloca i32, align 4
  store ptr %0, ptr %3, align 8, !tbaa !187
  store i32 %1, ptr %4, align 4, !tbaa !29
  %5 = load i32, ptr %4, align 4, !tbaa !29
  call void @_ZSt7advanceIP18default_hash_entryIZN2dd10simplifier14simplify_exlinERK6vectorI8uint_setLb1EjERKS3_INS1_3pddELb1EjERS9_E3monEjEvRT_T0_(ptr noundef nonnull align 8 dereferenceable(8) %3, i32 noundef %5)
  %6 = load ptr, ptr %3, align 8, !tbaa !187
  ret ptr %6
}

; Function Attrs: inlinehint mustprogress uwtable
define internal noundef ptr @_ZSt10_Destroy_nIP18default_hash_entryIZN2dd10simplifier14simplify_exlinERK6vectorI8uint_setLb1EjERKS3_INS1_3pddELb1EjERS9_E3monEjET_SG_T0_(ptr noundef %0, i32 noundef %1) #7 {
  %3 = alloca ptr, align 8
  %4 = alloca i32, align 4
  store ptr %0, ptr %3, align 8, !tbaa !187
  store i32 %1, ptr %4, align 4, !tbaa !29
  %5 = load ptr, ptr %3, align 8, !tbaa !187
  %6 = load i32, ptr %4, align 4, !tbaa !29
  %7 = call noundef ptr @_ZNSt14_Destroy_n_auxILb1EE11__destroy_nIP18default_hash_entryIZN2dd10simplifier14simplify_exlinERK6vectorI8uint_setLb1EjERKS5_INS3_3pddELb1EjERSB_E3monEjEET_SI_T0_(ptr noundef %5, i32 noundef %6)
  ret ptr %7
}

; Function Attrs: inlinehint mustprogress uwtable
define internal noundef ptr @_ZSt9destroy_nIP18default_hash_entryIZN2dd10simplifier14simplify_exlinERK6vectorI8uint_setLb1EjERKS3_INS1_3pddELb1EjERS9_E3monEjET_SG_T0_(ptr noundef %0, i32 noundef %1) #7 {
  %3 = alloca ptr, align 8
  %4 = alloca i32, align 4
  store ptr %0, ptr %3, align 8, !tbaa !187
  store i32 %1, ptr %4, align 4, !tbaa !29
  %5 = load ptr, ptr %3, align 8, !tbaa !187
  %6 = load i32, ptr %4, align 4, !tbaa !29
  %7 = call noundef ptr @_ZSt10_Destroy_nIP18default_hash_entryIZN2dd10simplifier14simplify_exlinERK6vectorI8uint_setLb1EjERKS3_INS1_3pddELb1EjERS9_E3monEjET_SG_T0_(ptr noundef %5, i32 noundef %6)
  ret ptr %7
}

; Function Attrs: mustprogress uwtable
define internal void @_Z12dealloc_vectI18default_hash_entryIZN2dd10simplifier14simplify_exlinERK6vectorI8uint_setLb1EjERKS3_INS1_3pddELb1EjERS9_E3monEEvPT_j(ptr noundef %0, i32 noundef %1) #4 {
  %3 = alloca ptr, align 8
  %4 = alloca i32, align 4
  store ptr %0, ptr %3, align 8, !tbaa !187
  store i32 %1, ptr %4, align 4, !tbaa !29
  %5 = load ptr, ptr %3, align 8, !tbaa !187
  %6 = icmp eq ptr %5, null
  br i1 %6, label %7, label %8

7:                                                ; preds = %2
  br label %13

8:                                                ; preds = %2
  %9 = load ptr, ptr %3, align 8, !tbaa !187
  %10 = load i32, ptr %4, align 4, !tbaa !29
  %11 = call noundef ptr @_ZSt9destroy_nIP18default_hash_entryIZN2dd10simplifier14simplify_exlinERK6vectorI8uint_setLb1EjERKS3_INS1_3pddELb1EjERS9_E3monEjET_SG_T0_(ptr noundef %9, i32 noundef %10)
  %12 = load ptr, ptr %3, align 8, !tbaa !187
  call void @_ZN6memory10deallocateEPv(ptr noundef %12)
  br label %13

13:                                               ; preds = %8, %7
  ret void
}

; Function Attrs: mustprogress uwtable
define internal void @_ZN14core_hashtableI18default_hash_entryIZN2dd10simplifier14simplify_exlinERK6vectorI8uint_setLb1EjERKS3_INS1_3pddELb1EjERS9_E3monEZNS2_14simplify_exlinES7_SB_SC_ENSD_4hashEZNS2_14simplify_exlinES7_SB_SC_ENSD_2eqEE12delete_tableEv(ptr noundef nonnull align 8 dereferenceable(36) %0) #4 align 2 {
  %2 = alloca ptr, align 8
  store ptr %0, ptr %2, align 8, !tbaa !199
  %3 = load ptr, ptr %2, align 8
  %4 = getelementptr inbounds nuw %class.core_hashtable.25, ptr %3, i32 0, i32 2
  %5 = load ptr, ptr %4, align 8, !tbaa !298
  %6 = getelementptr inbounds nuw %class.core_hashtable.25, ptr %3, i32 0, i32 3
  %7 = load i32, ptr %6, align 8, !tbaa !297
  call void @_Z12dealloc_vectI18default_hash_entryIZN2dd10simplifier14simplify_exlinERK6vectorI8uint_setLb1EjERKS3_INS1_3pddELb1EjERS9_E3monEEvPT_j(ptr noundef %5, i32 noundef %7)
  %8 = getelementptr inbounds nuw %class.core_hashtable.25, ptr %3, i32 0, i32 2
  store ptr null, ptr %8, align 8, !tbaa !298
  ret void
}

; Function Attrs: mustprogress nounwind uwtable
define internal void @_ZN14core_hashtableI18default_hash_entryIZN2dd10simplifier14simplify_exlinERK6vectorI8uint_setLb1EjERKS3_INS1_3pddELb1EjERS9_E3monEZNS2_14simplify_exlinES7_SB_SC_ENSD_4hashEZNS2_14simplify_exlinES7_SB_SC_ENSD_2eqEED2Ev(ptr noundef nonnull align 8 dereferenceable(36) %0) unnamed_addr #9 align 2 personality ptr @__gxx_personality_v0 {
  %2 = alloca ptr, align 8
  store ptr %0, ptr %2, align 8, !tbaa !199
  %3 = load ptr, ptr %2, align 8
  invoke void @_ZN14core_hashtableI18default_hash_entryIZN2dd10simplifier14simplify_exlinERK6vectorI8uint_setLb1EjERKS3_INS1_3pddELb1EjERS9_E3monEZNS2_14simplify_exlinES7_SB_SC_ENSD_4hashEZNS2_14simplify_exlinES7_SB_SC_ENSD_2eqEE12delete_tableEv(ptr noundef nonnull align 8 dereferenceable(36) %3)
          to label %4 unwind label %5

4:                                                ; preds = %1
  ret void

5:                                                ; preds = %1
  %6 = landingpad { ptr, i32 }
          catch ptr null
  %7 = extractvalue { ptr, i32 } %6, 0
  call void @__clang_call_terminate(ptr %7) #21
  unreachable
}