; Function Attrs: mustprogress nounwind uwtable
define internal fastcc void @_ZN14core_hashtableI18default_hash_entryIZN2dd10simplifier14simplify_exlinERK6vectorI8uint_setLb1EjERKS3_INS1_3pddELb1EjERS9_E3monEZNS2_14simplify_exlinES7_SB_SC_ENSD_4hashEZNS2_14simplify_exlinES7_SB_SC_ENSD_2eqEED2Ev(ptr noundef nonnull align 8 captures(none) dereferenceable(36) %0) unnamed_addr #8 align 2 personality ptr @__gxx_personality_v0 {
  %2 = getelementptr inbounds nuw i8, ptr %0, i64 16
  %3 = load ptr, ptr %2, align 8, !tbaa !203
  %4 = icmp eq ptr %3, null
  br i1 %4, label %6, label %5

5:                                                ; preds = %1
  invoke void @_ZN6memory10deallocateEPv(ptr noundef nonnull %3)
          to label %6 unwind label %7

6:                                                ; preds = %1, %5
  store ptr null, ptr %2, align 8, !tbaa !203
  ret void

7:                                                ; preds = %5
  %8 = landingpad { ptr, i32 }
          catch ptr null
  %9 = extractvalue { ptr, i32 } %8, 0
  tail call void @__clang_call_terminate(ptr %9) #24
  unreachable
}